; ModuleID = '21/1477.c'
source_filename = "21/1477.c"
target datalayout = "e-m:e-p270:32:32-p271:32:32-p272:64:64-i64:64-f80:128-n8:16:32:64-S128"
target triple = "x86_64-pc-linux-gnu"

@.str = private unnamed_addr constant [3 x i8] c"%d\00", align 1
@.str.1 = private unnamed_addr constant [4 x i8] c",%d\00", align 1
@.str.2 = private unnamed_addr constant [2 x i8] c"\0A\00", align 1

; Function Attrs: noinline nounwind uwtable
define dso_local void @main() #0 {
  %1 = alloca i32, align 4
  %2 = alloca [301 x i32], align 16
  %3 = alloca i32, align 4
  %4 = alloca i32, align 4
  %5 = alloca i32, align 4
  %6 = alloca float, align 4
  %7 = alloca [301 x float], align 16
  %8 = alloca float, align 4
  %9 = bitcast [301 x i32]* %2 to i8*
  call void @llvm.memset.p0i8.i64(i8* align 16 %9, i8 0, i64 1204, i1 false)
  store float 0.000000e+00, float* %6, align 4
  %10 = bitcast [301 x float]* %7 to i8*
  call void @llvm.memset.p0i8.i64(i8* align 16 %10, i8 0, i64 1204, i1 false)
  %11 = call i32 (i8*, ...) @__isoc99_scanf(i8* getelementptr inbounds ([3 x i8], [3 x i8]* @.str, i64 0, i64 0), i32* %1)
  store i32 1, i32* %3, align 4
  br label %12

12:                                               ; preds = %28, %0
  %13 = load i32, i32* %3, align 4
  %14 = load i32, i32* %1, align 4
  %15 = icmp sle i32 %13, %14
  br i1 %15, label %16, label %31

16:                                               ; preds = %12
  %17 = load i32, i32* %3, align 4
  %18 = sext i32 %17 to i64
  %19 = getelementptr inbounds [301 x i32], [301 x i32]* %2, i64 0, i64 %18
  %20 = call i32 (i8*, ...) @__isoc99_scanf(i8* getelementptr inbounds ([3 x i8], [3 x i8]* @.str, i64 0, i64 0), i32* %19)
  %21 = load i32, i32* %3, align 4
  %22 = sext i32 %21 to i64
  %23 = getelementptr inbounds [301 x i32], [301 x i32]* %2, i64 0, i64 %22
  %24 = load i32, i32* %23, align 4
  %25 = sitofp i32 %24 to float
  %26 = load float, float* %6, align 4
  %27 = fadd float %26, %25
  store float %27, float* %6, align 4
  br label %28

28:                                               ; preds = %16
  %29 = load i32, i32* %3, align 4
  %30 = add nsw i32 %29, 1
  store i32 %30, i32* %3, align 4
  br label %12

31:                                               ; preds = %12
  %32 = load float, float* %6, align 4
  %33 = load i32, i32* %1, align 4
  %34 = sitofp i32 %33 to float
  %35 = fdiv float %32, %34
  store float %35, float* %6, align 4
  store i32 1, i32* %3, align 4
  br label %36

36:                                               ; preds = %71, %31
  %37 = load i32, i32* %3, align 4
  %38 = load i32, i32* %1, align 4
  %39 = icmp sle i32 %37, %38
  br i1 %39, label %40, label %74

40:                                               ; preds = %36
  %41 = load i32, i32* %3, align 4
  %42 = sext i32 %41 to i64
  %43 = getelementptr inbounds [301 x i32], [301 x i32]* %2, i64 0, i64 %42
  %44 = load i32, i32* %43, align 4
  %45 = sitofp i32 %44 to float
  %46 = load float, float* %6, align 4
  %47 = fcmp ogt float %45, %46
  br i1 %47, label %48, label %59

48:                                               ; preds = %40
  %49 = load i32, i32* %3, align 4
  %50 = sext i32 %49 to i64
  %51 = getelementptr inbounds [301 x i32], [301 x i32]* %2, i64 0, i64 %50
  %52 = load i32, i32* %51, align 4
  %53 = sitofp i32 %52 to float
  %54 = load float, float* %6, align 4
  %55 = fsub float %53, %54
  %56 = load i32, i32* %3, align 4
  %57 = sext i32 %56 to i64
  %58 = getelementptr inbounds [301 x float], [301 x float]* %7, i64 0, i64 %57
  store float %55, float* %58, align 4
  br label %70

59:                                               ; preds = %40
  %60 = load float, float* %6, align 4
  %61 = load i32, i32* %3, align 4
  %62 = sext i32 %61 to i64
  %63 = getelementptr inbounds [301 x i32], [301 x i32]* %2, i64 0, i64 %62
  %64 = load i32, i32* %63, align 4
  %65 = sitofp i32 %64 to float
  %66 = fsub float %60, %65
  %67 = load i32, i32* %3, align 4
  %68 = sext i32 %67 to i64
  %69 = getelementptr inbounds [301 x float], [301 x float]* %7, i64 0, i64 %68
  store float %66, float* %69, align 4
  br label %70

70:                                               ; preds = %59, %48
  br label %71

71:                                               ; preds = %70
  %72 = load i32, i32* %3, align 4
  %73 = add nsw i32 %72, 1
  store i32 %73, i32* %3, align 4
  br label %36

74:                                               ; preds = %36
  store i32 1, i32* %3, align 4
  br label %75

75:                                               ; preds = %137, %74
  %76 = load i32, i32* %3, align 4
  %77 = load i32, i32* %1, align 4
  %78 = icmp sle i32 %76, %77
  br i1 %78, label %79, label %140

79:                                               ; preds = %75
  store i32 1, i32* %4, align 4
  br label %80

80:                                               ; preds = %133, %79
  %81 = load i32, i32* %4, align 4
  %82 = load i32, i32* %1, align 4
  %83 = load i32, i32* %3, align 4
  %84 = sub nsw i32 %82, %83
  %85 = icmp sle i32 %81, %84
  br i1 %85, label %86, label %136

86:                                               ; preds = %80
  %87 = load i32, i32* %4, align 4
  %88 = sext i32 %87 to i64
  %89 = getelementptr inbounds [301 x float], [301 x float]* %7, i64 0, i64 %88
  %90 = load float, float* %89, align 4
  %91 = load i32, i32* %4, align 4
  %92 = add nsw i32 %91, 1
  %93 = sext i32 %92 to i64
  %94 = getelementptr inbounds [301 x float], [301 x float]* %7, i64 0, i64 %93
  %95 = load float, float* %94, align 4
  %96 = fcmp olt float %90, %95
  br i1 %96, label %97, label %132

97:                                               ; preds = %86
  %98 = load i32, i32* %4, align 4
  %99 = sext i32 %98 to i64
  %100 = getelementptr inbounds [301 x float], [301 x float]* %7, i64 0, i64 %99
  %101 = load float, float* %100, align 4
  store float %101, float* %8, align 4
  %102 = load i32, i32* %4, align 4
  %103 = add nsw i32 %102, 1
  %104 = sext i32 %103 to i64
  %105 = getelementptr inbounds [301 x float], [301 x float]* %7, i64 0, i64 %104
  %106 = load float, float* %105, align 4
  %107 = load i32, i32* %4, align 4
  %108 = sext i32 %107 to i64
  %109 = getelementptr inbounds [301 x float], [301 x float]* %7, i64 0, i64 %108
  store float %106, float* %109, align 4
  %110 = load float, float* %8, align 4
  %111 = load i32, i32* %4, align 4
  %112 = add nsw i32 %111, 1
  %113 = sext i32 %112 to i64
  %114 = getelementptr inbounds [301 x float], [301 x float]* %7, i64 0, i64 %113
  store float %110, float* %114, align 4
  %115 = load i32, i32* %4, align 4
  %116 = sext i32 %115 to i64
  %117 = getelementptr inbounds [301 x i32], [301 x i32]* %2, i64 0, i64 %116
  %118 = load i32, i32* %117, align 4
  store i32 %118, i32* %5, align 4
  %119 = load i32, i32* %4, align 4
  %120 = add nsw i32 %119, 1
  %121 = sext i32 %120 to i64
  %122 = getelementptr inbounds [301 x i32], [301 x i32]* %2, i64 0, i64 %121
  %123 = load i32, i32* %122, align 4
  %124 = load i32, i32* %4, align 4
  %125 = sext i32 %124 to i64
  %126 = getelementptr inbounds [301 x i32], [301 x i32]* %2, i64 0, i64 %125
  store i32 %123, i32* %126, align 4
  %127 = load i32, i32* %5, align 4
  %128 = load i32, i32* %4, align 4
  %129 = add nsw i32 %128, 1
  %130 = sext i32 %129 to i64
  %131 = getelementptr inbounds [301 x i32], [301 x i32]* %2, i64 0, i64 %130
  store i32 %127, i32* %131, align 4
  br label %132

132:                                              ; preds = %97, %86
  br label %133

133:                                              ; preds = %132
  %134 = load i32, i32* %4, align 4
  %135 = add nsw i32 %134, 1
  store i32 %135, i32* %4, align 4
  br label %80

136:                                              ; preds = %80
  br label %137

137:                                              ; preds = %136
  %138 = load i32, i32* %3, align 4
  %139 = add nsw i32 %138, 1
  store i32 %139, i32* %3, align 4
  br label %75

140:                                              ; preds = %75
  %141 = getelementptr inbounds [301 x float], [301 x float]* %7, i64 0, i64 1
  %142 = load float, float* %141, align 4
  store float %142, float* %8, align 4
  %143 = getelementptr inbounds [301 x i32], [301 x i32]* %2, i64 0, i64 1
  %144 = load i32, i32* %143, align 4
  %145 = call i32 (i8*, ...) @printf(i8* getelementptr inbounds ([3 x i8], [3 x i8]* @.str, i64 0, i64 0), i32 %144)
  store i32 2, i32* %3, align 4
  br label %146

146:                                              ; preds = %164, %140
  %147 = load i32, i32* %3, align 4
  %148 = load i32, i32* %1, align 4
  %149 = icmp sle i32 %147, %148
  br i1 %149, label %150, label %167

150:                                              ; preds = %146
  %151 = load i32, i32* %3, align 4
  %152 = sext i32 %151 to i64
  %153 = getelementptr inbounds [301 x float], [301 x float]* %7, i64 0, i64 %152
  %154 = load float, float* %153, align 4
  %155 = load float, float* %8, align 4
  %156 = fcmp oeq float %154, %155
  br i1 %156, label %157, label %163

157:                                              ; preds = %150
  %158 = load i32, i32* %3, align 4
  %159 = sext i32 %158 to i64
  %160 = getelementptr inbounds [301 x i32], [301 x i32]* %2, i64 0, i64 %159
  %161 = load i32, i32* %160, align 4
  %162 = call i32 (i8*, ...) @printf(i8* getelementptr inbounds ([4 x i8], [4 x i8]* @.str.1, i64 0, i64 0), i32 %161)
  br label %163

163:                                              ; preds = %157, %150
  br label %164

164:                                              ; preds = %163
  %165 = load i32, i32* %3, align 4
  %166 = add nsw i32 %165, 1
  store i32 %166, i32* %3, align 4
  br label %146

167:                                              ; preds = %146
  %168 = call i32 (i8*, ...) @printf(i8* getelementptr inbounds ([2 x i8], [2 x i8]* @.str.2, i64 0, i64 0))
  ret void
}

; Function Attrs: argmemonly nounwind willreturn
declare void @llvm.memset.p0i8.i64(i8* nocapture writeonly, i8, i64, i1 immarg) #1

declare dso_local i32 @__isoc99_scanf(i8*, ...) #2

declare dso_local i32 @printf(i8*, ...) #2


!llvm.module.flags = !{!0}
!llvm.ident = !{!1}

!0 = !{i32 1, !"wchar_size", i32 4}
!1 = !{!"clang version 10.0.0-4ubuntu1 "}
